TN:
SF:/home/crissyro/system-for-evaluating-teachers-and-courses/include/classes/course.hpp
FN:34,35,_ZN6course6CourseC2EiRKNSt7__cxx1112basic_stringIcSt11char_traitsIcESaIcEEES8_
FN:38,38,_ZN6course6CourseD2Ev
FN:44,44,_ZNK6course6Course5getIdEv
FN:50,50,_ZNK6course6Course7getNameB5cxx11Ev
FN:56,56,_ZNK6course6Course12getInstituteB5cxx11Ev
FNDA:11,_ZN6course6CourseC2EiRKNSt7__cxx1112basic_stringIcSt11char_traitsIcESaIcEEES8_
FNDA:18,_ZN6course6CourseD2Ev
FNDA:0,_ZNK6course6Course5getIdEv
FNDA:6,_ZNK6course6Course7getNameB5cxx11Ev
FNDA:6,_ZNK6course6Course12getInstituteB5cxx11Ev
FNF:5
FNH:4
DA:34,11
DA:35,11
DA:38,18
DA:44,0
DA:50,6
DA:56,6
LF:6
LH:5
end_of_record
TN:
SF:/home/crissyro/system-for-evaluating-teachers-and-courses/include/classes/rating.hpp
FN:36,37,_ZN6rating6RatingC2Eiiib
FN:46,46,_ZNK6rating6Rating12getStudentIdEv
FN:52,52,_ZNK6rating6Rating11getEntityIdEv
FN:58,58,_ZNK6rating6Rating8getValueEv
FN:64,64,_ZNK6rating6Rating14isCourseRatingEv
FNDA:2,_ZN6rating6RatingC2Eiiib
FNDA:0,_ZNK6rating6Rating12getStudentIdEv
FNDA:0,_ZNK6rating6Rating11getEntityIdEv
FNDA:2,_ZNK6rating6Rating8getValueEv
FNDA:0,_ZNK6rating6Rating14isCourseRatingEv
FNF:5
FNH:2
DA:36,2
DA:37,2
DA:46,0
DA:52,0
DA:58,2
DA:64,0
LF:6
LH:3
end_of_record
TN:
SF:/home/crissyro/system-for-evaluating-teachers-and-courses/include/classes/student.hpp
FN:45,57,_ZN7student7StudentC2ERKNSt7__cxx1112basic_stringIcSt11char_traitsIcESaIcEEES8_S8_S8_S8_iS8_S8_
FN:71,83,_ZN7student7StudentC2EiRKNSt7__cxx1112basic_stringIcSt11char_traitsIcESaIcEEES8_S8_S8_S8_iS8_S8_
FN:86,86,_ZN7student7StudentD2Ev
FN:91,91,_ZNK7student7Student10getSurnameB5cxx11Ev
FN:92,92,_ZNK7student7Student7getNameB5cxx11Ev
FN:93,93,_ZNK7student7Student13getPatronymicB5cxx11Ev
FN:94,94,_ZNK7student7Student12getInstituteB5cxx11Ev
FN:95,95,_ZNK7student7Student13getDepartmentB5cxx11Ev
FN:96,96,_ZNK7student7Student9getCourseEv
FN:97,97,_ZNK7student7Student8getGroupB5cxx11Ev
FN:98,98,_ZNK7student7Student13getRecordBookB5cxx11Ev
FNDA:1,_ZN7student7StudentC2ERKNSt7__cxx1112basic_stringIcSt11char_traitsIcESaIcEEES8_S8_S8_S8_iS8_S8_
FNDA:0,_ZN7student7StudentC2EiRKNSt7__cxx1112basic_stringIcSt11char_traitsIcESaIcEEES8_S8_S8_S8_iS8_S8_
FNDA:1,_ZN7student7StudentD2Ev
FNDA:1,_ZNK7student7Student10getSurnameB5cxx11Ev
FNDA:1,_ZNK7student7Student7getNameB5cxx11Ev
FNDA:1,_ZNK7student7Student13getPatronymicB5cxx11Ev
FNDA:1,_ZNK7student7Student12getInstituteB5cxx11Ev
FNDA:1,_ZNK7student7Student13getDepartmentB5cxx11Ev
FNDA:1,_ZNK7student7Student9getCourseEv
FNDA:1,_ZNK7student7Student8getGroupB5cxx11Ev
FNDA:1,_ZNK7student7Student13getRecordBookB5cxx11Ev
FNF:11
FNH:10
DA:45,1
DA:49,1
DA:50,1
DA:51,1
DA:52,1
DA:53,1
DA:54,1
DA:55,1
DA:56,1
DA:57,1
DA:71,0
DA:75,0
DA:76,0
DA:77,0
DA:78,0
DA:79,0
DA:80,0
DA:81,0
DA:82,0
DA:83,0
DA:86,1
DA:91,1
DA:92,1
DA:93,1
DA:94,1
DA:95,1
DA:96,1
DA:97,1
DA:98,1
LF:29
LH:19
end_of_record
TN:
SF:/home/crissyro/system-for-evaluating-teachers-and-courses/include/classes/teacher.hpp
FN:40,48,_ZN7teacher7TeacherC2EiRKNSt7__cxx1112basic_stringIcSt11char_traitsIcESaIcEEES8_S8_S8_S8_
FN:51,51,_ZN7teacher7TeacherD2Ev
FN:55,55,_ZNK7teacher7Teacher5getIdEv
FN:56,56,_ZNK7teacher7Teacher10getSurnameB5cxx11Ev
FN:57,57,_ZNK7teacher7Teacher7getNameB5cxx11Ev
FN:58,58,_ZNK7teacher7Teacher13getPatronymicB5cxx11Ev
FN:59,59,_ZNK7teacher7Teacher12getInstituteB5cxx11Ev
FN:60,60,_ZNK7teacher7Teacher13getDepartmentB5cxx11Ev
FN:67,69,_ZNK7teacher7Teacher11getFullNameB5cxx11Ev
FNDA:1,_ZN7teacher7TeacherC2EiRKNSt7__cxx1112basic_stringIcSt11char_traitsIcESaIcEEES8_S8_S8_S8_
FNDA:1,_ZN7teacher7TeacherD2Ev
FNDA:0,_ZNK7teacher7Teacher5getIdEv
FNDA:1,_ZNK7teacher7Teacher10getSurnameB5cxx11Ev
FNDA:1,_ZNK7teacher7Teacher7getNameB5cxx11Ev
FNDA:1,_ZNK7teacher7Teacher13getPatronymicB5cxx11Ev
FNDA:1,_ZNK7teacher7Teacher12getInstituteB5cxx11Ev
FNDA:1,_ZNK7teacher7Teacher13getDepartmentB5cxx11Ev
FNDA:0,_ZNK7teacher7Teacher11getFullNameB5cxx11Ev
FNF:9
FNH:7
DA:40,1
DA:43,1
DA:44,1
DA:45,1
DA:46,1
DA:47,1
DA:48,1
DA:51,1
DA:55,0
DA:56,1
DA:57,1
DA:58,1
DA:59,1
DA:60,1
DA:67,0
DA:68,0
LF:16
LH:13
end_of_record
TN:
SF:/home/crissyro/system-for-evaluating-teachers-and-courses/include/database/database.hpp
FN:100,100,_ZNK8database8Database9getHandleEv
FN:56,56,_ZNK8database8Database9StatementcvP12sqlite3_stmtEv
FNDA:18,_ZNK8database8Database9getHandleEv
FNDA:77,_ZNK8database8Database9StatementcvP12sqlite3_stmtEv
FNF:2
FNH:2
DA:56,77
DA:100,18
LF:2
LH:2
end_of_record
TN:
SF:/home/crissyro/system-for-evaluating-teachers-and-courses/src/database/admin_db.cpp
FN:26,33,_ZN8database7AdminDB11adminExistsERKNSt7__cxx1112basic_stringIcSt11char_traitsIcESaIcEEE
FN:35,41,_ZN8database7AdminDB8addAdminERKNSt7__cxx1112basic_stringIcSt11char_traitsIcESaIcEEE
FN:43,55,_ZN8database7AdminDB16checkCredentialsERKNSt7__cxx1112basic_stringIcSt11char_traitsIcESaIcEEES8_
FN:7,24,_ZN8database7AdminDBC2ERKNS_8DatabaseE
FNDA:4,_ZN8database7AdminDB11adminExistsERKNSt7__cxx1112basic_stringIcSt11char_traitsIcESaIcEEE
FNDA:3,_ZN8database7AdminDB8addAdminERKNSt7__cxx1112basic_stringIcSt11char_traitsIcESaIcEEE
FNDA:4,_ZN8database7AdminDB16checkCredentialsERKNSt7__cxx1112basic_stringIcSt11char_traitsIcESaIcEEES8_
FNDA:4,_ZN8database7AdminDBC2ERKNS_8DatabaseE
FNF:4
FNH:4
DA:7,4
DA:8,4
DA:15,4
DA:16,4
DA:18,8
DA:19,4
DA:21,4
DA:22,4
DA:23,4
DA:24,4
DA:26,4
DA:27,4
DA:29,4
DA:30,4
DA:32,8
DA:33,4
DA:35,3
DA:36,3
DA:37,3
DA:38,3
DA:39,3
DA:40,6
DA:41,3
DA:43,4
DA:44,4
DA:46,4
DA:47,4
DA:49,4
DA:50,3
DA:51,3
DA:52,3
DA:54,1
DA:55,4
LF:33
LH:33
end_of_record
TN:
SF:/home/crissyro/system-for-evaluating-teachers-and-courses/src/database/course_db.cpp
FN:17,29,_ZN8database8CourseDB9addCourseERKN6course6CourseE
FN:31,43,_ZN8database8CourseDB9getCourseEi
FN:45,52,_ZN8database8CourseDB6existsEi
FN:5,15,_ZN8database8CourseDBC2ERKNS_8DatabaseE
FN:54,66,_ZN8database8CourseDB13getAllCoursesEv
FNDA:5,_ZN8database8CourseDB9addCourseERKN6course6CourseE
FNDA:1,_ZN8database8CourseDB9getCourseEi
FNDA:2,_ZN8database8CourseDB6existsEi
FNDA:4,_ZN8database8CourseDBC2ERKNS_8DatabaseE
FNDA:1,_ZN8database8CourseDB13getAllCoursesEv
FNF:5
FNH:5
DA:5,4
DA:6,4
DA:13,4
DA:14,4
DA:15,4
DA:17,5
DA:18,5
DA:20,5
DA:21,5
DA:22,5
DA:24,5
DA:25,0
DA:28,10
DA:29,5
DA:31,1
DA:32,1
DA:34,1
DA:35,1
DA:37,1
DA:38,1
DA:39,4
DA:42,0
DA:43,1
DA:45,2
DA:46,2
DA:48,2
DA:49,2
DA:51,4
DA:52,2
DA:54,1
DA:55,1
DA:56,1
DA:58,1
DA:60,6
DA:61,5
DA:62,10
DA:65,2
DA:66,1
LF:38
LH:36
end_of_record
TN:
SF:/home/crissyro/system-for-evaluating-teachers-and-courses/src/database/database.cpp
FN:16,18,_ZN8database8DatabaseD2Ev
FN:20,24,_ZN8database8Database9StatementC2EP7sqlite3PKc
FN:26,28,_ZN8database8Database9StatementD2Ev
FN:30,32,_ZN8database8Database9Statement4bindEiRKNSt7__cxx1112basic_stringIcSt11char_traitsIcESaIcEEE
FN:34,36,_ZN8database8Database9Statement4bindEii
FN:38,40,_ZN8database8Database11TransactionC2EP7sqlite3
FN:42,44,_ZN8database8Database11TransactionD2Ev
FN:46,49,_ZN8database8Database11Transaction6commitEv
FN:51,54,_ZN8database8Database11Transaction8rollbackEv
FN:56,58,_ZN8database8Database16beginTransactionEv
FN:7,14,_ZN8database8DatabaseC2Ev
FNDA:8,_ZN8database8DatabaseD2Ev
FNDA:41,_ZN8database8Database9StatementC2EP7sqlite3PKc
FNDA:41,_ZN8database8Database9StatementD2Ev
FNDA:36,_ZN8database8Database9Statement4bindEiRKNSt7__cxx1112basic_stringIcSt11char_traitsIcESaIcEEE
FNDA:10,_ZN8database8Database9Statement4bindEii
FNDA:0,_ZN8database8Database11TransactionC2EP7sqlite3
FNDA:0,_ZN8database8Database11TransactionD2Ev
FNDA:0,_ZN8database8Database11Transaction6commitEv
FNDA:0,_ZN8database8Database11Transaction8rollbackEv
FNDA:0,_ZN8database8Database16beginTransactionEv
FNDA:8,_ZN8database8DatabaseC2Ev
FNF:11
FNH:6
DA:7,8
DA:8,8
DA:9,0
DA:12,8
DA:13,8
DA:14,8
DA:16,8
DA:17,8
DA:18,8
DA:20,41
DA:21,41
DA:22,0
DA:24,41
DA:26,41
DA:27,41
DA:28,41
DA:30,36
DA:31,36
DA:32,36
DA:34,10
DA:35,10
DA:36,10
DA:38,0
DA:39,0
DA:40,0
DA:42,0
DA:43,0
DA:44,0
DA:46,0
DA:47,0
DA:48,0
DA:49,0
DA:51,0
DA:52,0
DA:53,0
DA:54,0
DA:56,0
DA:57,0
LF:38
LH:20
end_of_record
TN:
SF:/home/crissyro/system-for-evaluating-teachers-and-courses/src/database/rating_db.cpp
FN:107,119,_ZN8database8RatingDB16getCourseRatingsEi
FN:121,133,_ZN8database8RatingDB17getTeacherRatingsEi
FN:135,138,_ZN8database8RatingDB17getStudentRatingsEi
FN:140,152,_ZN8database8RatingDB15addCourseRatingEiii
FN:33,42,_ZN8database8RatingDB16addTeacherRatingEiii
FN:44,59,_ZN8database8RatingDB17hasExistingRatingEiib
FN:5,31,_ZN8database8RatingDBC2ERKNS_8DatabaseE
FN:61,85,_ZN8database8RatingDB13getStatisticsEv
FN:87,105,_ZN8database8RatingDB13getAllRatingsEv
FNDA:0,_ZN8database8RatingDB16getCourseRatingsEi
FNDA:0,_ZN8database8RatingDB17getTeacherRatingsEi
FNDA:0,_ZN8database8RatingDB17getStudentRatingsEi
FNDA:1,_ZN8database8RatingDB15addCourseRatingEiii
FNDA:1,_ZN8database8RatingDB16addTeacherRatingEiii
FNDA:0,_ZN8database8RatingDB17hasExistingRatingEiib
FNDA:1,_ZN8database8RatingDBC2ERKNS_8DatabaseE
FNDA:0,_ZN8database8RatingDB13getStatisticsEv
FNDA:1,_ZN8database8RatingDB13getAllRatingsEv
FNF:9
FNH:4
DA:5,1
DA:6,1
DA:16,1
DA:17,1
DA:19,1
DA:29,1
DA:30,1
DA:31,1
DA:33,1
DA:34,1
DA:36,1
DA:37,1
DA:38,1
DA:39,1
DA:41,2
DA:42,1
DA:44,0
DA:46,0
DA:47,0
DA:49,0
DA:54,0
DA:55,0
DA:56,0
DA:58,0
DA:59,0
DA:61,0
DA:62,0
DA:64,0
DA:69,0
DA:70,0
DA:71,0
DA:74,0
DA:79,0
DA:80,0
DA:81,0
DA:84,0
DA:85,0
DA:87,1
DA:88,1
DA:90,1
DA:96,1
DA:98,3
DA:99,2
DA:101,6
DA:104,2
DA:105,1
DA:107,0
DA:108,0
DA:109,0
DA:111,0
DA:112,0
DA:114,0
DA:115,0
DA:118,0
DA:119,0
DA:121,0
DA:122,0
DA:123,0
DA:125,0
DA:126,0
DA:128,0
DA:129,0
DA:132,0
DA:133,0
DA:135,0
DA:137,0
DA:140,1
DA:141,1
DA:146,1
DA:147,1
DA:148,1
DA:149,1
DA:151,2
DA:152,1
LF:74
LH:33
end_of_record
TN:
SF:/home/crissyro/system-for-evaluating-teachers-and-courses/src/database/student_db.cpp
FN:23,45,_ZN8database9StudentDB10addStudentERKN7student7StudentE
FN:47,54,_ZN8database9StudentDB6existsERKNSt7__cxx1112basic_stringIcSt11char_traitsIcESaIcEEE
FN:5,21,_ZN8database9StudentDBC2ERKNS_8DatabaseE
FN:56,67,_ZN8database9StudentDB24getStudentIdByRecordBookERKNSt7__cxx1112basic_stringIcSt11char_traitsIcESaIcEEE
FNDA:1,_ZN8database9StudentDB10addStudentERKN7student7StudentE
FNDA:0,_ZN8database9StudentDB6existsERKNSt7__cxx1112basic_stringIcSt11char_traitsIcESaIcEEE
FNDA:1,_ZN8database9StudentDBC2ERKNS_8DatabaseE
FNDA:0,_ZN8database9StudentDB24getStudentIdByRecordBookERKNSt7__cxx1112basic_stringIcSt11char_traitsIcESaIcEEE
FNF:4
FNH:2
DA:5,1
DA:6,1
DA:19,1
DA:20,1
DA:21,1
DA:23,1
DA:24,1
DA:30,1
DA:31,1
DA:32,1
DA:33,1
DA:34,1
DA:35,1
DA:36,1
DA:37,1
DA:38,1
DA:40,1
DA:41,0
DA:44,2
DA:45,1
DA:47,0
DA:48,0
DA:50,0
DA:51,0
DA:53,0
DA:54,0
DA:56,0
DA:57,0
DA:59,0
DA:60,0
DA:62,0
DA:63,0
DA:66,0
DA:67,0
LF:34
LH:19
end_of_record
TN:
SF:/home/crissyro/system-for-evaluating-teachers-and-courses/src/database/teacher_db.cpp
FN:20,38,_ZN8database9TeacherDB10addTeacherERKN7teacher7TeacherE
FN:40,47,_ZN8database9TeacherDB6existsEi
FN:49,65,_ZN8database9TeacherDB10getTeacherEi
FN:5,18,_ZN8database9TeacherDBC2ERKNS_8DatabaseE
FN:67,84,_ZN8database9TeacherDB14getAllTeachersEv
FNDA:1,_ZN8database9TeacherDB10addTeacherERKN7teacher7TeacherE
FNDA:0,_ZN8database9TeacherDB6existsEi
FNDA:0,_ZN8database9TeacherDB10getTeacherEi
FNDA:1,_ZN8database9TeacherDBC2ERKNS_8DatabaseE
FNDA:0,_ZN8database9TeacherDB14getAllTeachersEv
FNF:5
FNH:2
DA:5,1
DA:6,1
DA:16,1
DA:17,1
DA:18,1
DA:20,1
DA:21,1
DA:26,1
DA:27,1
DA:28,1
DA:29,1
DA:30,1
DA:31,1
DA:33,1
DA:34,0
DA:37,2
DA:38,1
DA:40,0
DA:41,0
DA:43,0
DA:44,0
DA:46,0
DA:47,0
DA:49,0
DA:50,0
DA:52,0
DA:53,0
DA:55,0
DA:57,0
DA:58,0
DA:59,0
DA:60,0
DA:61,0
DA:64,0
DA:65,0
DA:67,0
DA:68,0
DA:69,0
DA:71,0
DA:73,0
DA:74,0
DA:75,0
DA:77,0
DA:78,0
DA:79,0
DA:80,0
DA:81,0
DA:83,0
DA:84,0
LF:49
LH:16
end_of_record
TN:
SF:/home/crissyro/system-for-evaluating-teachers-and-courses/src/ui/admin_menu.cpp
FN:11,11,_ZN4menu9AdminMenuC2ERN8database8DatabaseE
FN:110,136,_ZN4menu9AdminMenu10addTeacherEv
FN:13,23,_ZN4menu9AdminMenu14showAllRatingsEv
FN:25,51,_ZN4menu9AdminMenu14showStatisticsEv
FN:53,89,_ZN4menu9AdminMenu4showEv
FN:91,108,_ZN4menu9AdminMenu9addCourseEv
FNDA:0,_ZN4menu9AdminMenuC2ERN8database8DatabaseE
FNDA:0,_ZN4menu9AdminMenu10addTeacherEv
FNDA:0,_ZN4menu9AdminMenu14showAllRatingsEv
FNDA:0,_ZN4menu9AdminMenu14showStatisticsEv
FNDA:0,_ZN4menu9AdminMenu4showEv
FNDA:0,_ZN4menu9AdminMenu9addCourseEv
FNF:6
FNH:0
DA:11,0
DA:13,0
DA:14,0
DA:15,0
DA:17,0
DA:18,0
DA:19,0
DA:20,0
DA:21,0
DA:23,0
DA:25,0
DA:26,0
DA:27,0
DA:28,0
DA:30,0
DA:32,0
DA:33,0
DA:35,0
DA:36,0
DA:37,0
DA:38,0
DA:39,0
DA:42,0
DA:43,0
DA:45,0
DA:46,0
DA:47,0
DA:48,0
DA:49,0
DA:51,0
DA:53,0
DA:62,0
DA:63,0
DA:64,0
DA:67,0
DA:68,0
DA:69,0
DA:70,0
DA:71,0
DA:72,0
DA:73,0
DA:74,0
DA:75,0
DA:76,0
DA:77,0
DA:78,0
DA:79,0
DA:80,0
DA:81,0
DA:82,0
DA:83,0
DA:85,0
DA:86,0
DA:87,0
DA:88,0
DA:91,0
DA:92,0
DA:94,0
DA:95,0
DA:96,0
DA:98,0
DA:99,0
DA:102,0
DA:103,0
DA:104,0
DA:105,0
DA:106,0
DA:107,0
DA:108,0
DA:110,0
DA:111,0
DA:113,0
DA:114,0
DA:115,0
DA:117,0
DA:118,0
DA:120,0
DA:121,0
DA:123,0
DA:124,0
DA:126,0
DA:127,0
DA:130,0
DA:131,0
DA:132,0
DA:133,0
DA:134,0
DA:135,0
DA:136,0
LF:89
LH:0
end_of_record
TN:
SF:/home/crissyro/system-for-evaluating-teachers-and-courses/src/ui/login_menu.cpp
FN:10,10,_ZN4menu9LoginMenuC2ERN8database8DatabaseE
FN:12,23,_ZN4menu9LoginMenu12loginStudentEv
FN:25,39,_ZN4menu9LoginMenu10loginAdminEv
FNDA:0,_ZN4menu9LoginMenuC2ERN8database8DatabaseE
FNDA:0,_ZN4menu9LoginMenu12loginStudentEv
FNDA:0,_ZN4menu9LoginMenu10loginAdminEv
FNF:3
FNH:0
DA:10,0
DA:12,0
DA:13,0
DA:14,0
DA:15,0
DA:17,0
DA:18,0
DA:19,0
DA:21,0
DA:22,0
DA:23,0
DA:25,0
DA:26,0
DA:27,0
DA:29,0
DA:31,0
DA:32,0
DA:34,0
DA:36,0
DA:38,0
DA:39,0
LF:21
LH:0
end_of_record
TN:
SF:/home/crissyro/system-for-evaluating-teachers-and-courses/src/ui/main_menu.cpp
FN:12,12,_ZN4menu8MainMenuC2ERN8database8DatabaseE
FN:14,69,_ZN4menu8MainMenu3runEv
FNDA:0,_ZN4menu8MainMenuC2ERN8database8DatabaseE
FNDA:0,_ZN4menu8MainMenu3runEv
FNF:2
FNH:0
DA:12,0
DA:14,0
DA:22,0
DA:24,0
DA:25,0
DA:28,0
DA:29,0
DA:30,0
DA:31,0
DA:32,0
DA:33,0
DA:34,0
DA:36,0
DA:39,0
DA:40,0
DA:41,0
DA:42,0
DA:43,0
DA:45,0
DA:47,0
DA:50,0
DA:51,0
DA:52,0
DA:53,0
DA:54,0
DA:56,0
DA:59,0
DA:60,0
DA:62,0
DA:63,0
DA:65,0
DA:66,0
DA:67,0
DA:68,0
LF:34
LH:0
end_of_record
TN:
SF:/home/crissyro/system-for-evaluating-teachers-and-courses/src/ui/registration_menu.cpp
FN:10,10,_ZN4menu16RegistrationMenuC2ERN8database8DatabaseE
FN:12,65,_ZN4menu16RegistrationMenu15registerStudentEv
FNDA:0,_ZN4menu16RegistrationMenuC2ERN8database8DatabaseE
FNDA:0,_ZN4menu16RegistrationMenu15registerStudentEv
FNF:2
FNH:0
DA:10,0
DA:12,0
DA:13,0
DA:14,0
DA:15,0
DA:16,0
DA:17,0
DA:18,0
DA:19,0
DA:22,0
DA:24,0
DA:25,0
DA:27,0
DA:28,0
DA:30,0
DA:31,0
DA:33,0
DA:34,0
DA:36,0
DA:37,0
DA:39,0
DA:40,0
DA:42,0
DA:44,0
DA:45,0
DA:47,0
DA:48,0
DA:51,0
DA:53,0
DA:54,0
DA:55,0
DA:58,0
DA:60,0
DA:61,0
DA:62,0
DA:63,0
DA:64,0
DA:65,0
LF:38
LH:0
end_of_record
TN:
SF:/home/crissyro/system-for-evaluating-teachers-and-courses/src/ui/student_menu.cpp
FN:11,11,_ZN4menu11StudentMenuC2ERN8database8DatabaseEi
FN:13,15,_ZN4menu11StudentMenu11printHeaderERKNSt7__cxx1112basic_stringIcSt11char_traitsIcESaIcEEE
FN:17,46,_ZN4menu11StudentMenu10rateCourseEv
FN:48,77,_ZN4menu11StudentMenu11rateTeacherEv
FN:79,95,_ZN4menu11StudentMenu11viewRatingsEv
FN:97,130,_ZN4menu11StudentMenu4showEv
FNDA:0,_ZN4menu11StudentMenuC2ERN8database8DatabaseEi
FNDA:0,_ZN4menu11StudentMenu11printHeaderERKNSt7__cxx1112basic_stringIcSt11char_traitsIcESaIcEEE
FNDA:0,_ZN4menu11StudentMenu10rateCourseEv
FNDA:0,_ZN4menu11StudentMenu11rateTeacherEv
FNDA:0,_ZN4menu11StudentMenu11viewRatingsEv
FNDA:0,_ZN4menu11StudentMenu4showEv
FNF:6
FNH:0
DA:11,0
DA:13,0
DA:14,0
DA:15,0
DA:17,0
DA:18,0
DA:19,0
DA:20,0
DA:22,0
DA:23,0
DA:27,0
DA:28,0
DA:30,0
DA:31,0
DA:33,0
DA:34,0
DA:36,0
DA:37,0
DA:38,0
DA:41,0
DA:42,0
DA:44,0
DA:46,0
DA:48,0
DA:49,0
DA:50,0
DA:51,0
DA:53,0
DA:54,0
DA:58,0
DA:59,0
DA:61,0
DA:62,0
DA:64,0
DA:65,0
DA:67,0
DA:68,0
DA:69,0
DA:72,0
DA:73,0
DA:75,0
DA:77,0
DA:79,0
DA:80,0
DA:82,0
DA:84,0
DA:86,0
DA:87,0
DA:90,0
DA:92,0
DA:93,0
DA:95,0
DA:97,0
DA:105,0
DA:107,0
DA:108,0
DA:111,0
DA:112,0
DA:113,0
DA:114,0
DA:115,0
DA:116,0
DA:117,0
DA:118,0
DA:119,0
DA:120,0
DA:121,0
DA:122,0
DA:123,0
DA:124,0
DA:126,0
DA:127,0
DA:128,0
DA:129,0
LF:74
LH:0
end_of_record
